target datalayout = "e-m:e-p270:32:32-p271:32:32-p272:64:64-i64:64-i128:128-f80:128-n8:16:32:64-S128"
target triple = "x86_64-pc-linux-gnu"

@the_repository = external global ptr, align 8

; Function Attrs: nounwind uwtable
define internal i32 @clear_marks(ptr noundef %0, ptr noundef %1, ptr noundef %2, i32 noundef %3, ptr noundef %4) #0 {
  %6 = alloca ptr, align 8
  %7 = alloca ptr, align 8
  %8 = alloca ptr, align 8
  %9 = alloca i32, align 4
  %10 = alloca ptr, align 8
  %11 = alloca ptr, align 8
  store ptr %0, ptr %6, align 8, !tbaa !29
  store ptr %1, ptr %7, align 8, !tbaa !29
  store ptr %2, ptr %8, align 8, !tbaa !31
  store i32 %3, ptr %9, align 4, !tbaa !24
  store ptr %4, ptr %10, align 8, !tbaa !33
  call void @llvm.lifetime.start.p0(i64 8, ptr %11) #6
  %12 = load ptr, ptr @the_repository, align 8, !tbaa !25
  %13 = load ptr, ptr @the_repository, align 8, !tbaa !25
  %14 = load ptr, ptr %8, align 8, !tbaa !31
  %15 = call ptr @parse_object(ptr noundef %13, ptr noundef %14)
  %16 = load ptr, ptr %6, align 8, !tbaa !29
  %17 = call ptr @deref_tag(ptr noundef %12, ptr noundef %15, ptr noundef %16, i32 noundef 0)
  store ptr %17, ptr %11, align 8, !tbaa !34
  %18 = load ptr, ptr %11, align 8, !tbaa !34
  %19 = icmp ne ptr %18, null
  br i1 %19, label %20, label %28

20:                                               ; preds = %5
  %21 = load ptr, ptr %11, align 8, !tbaa !34
  %22 = load i32, ptr %21, align 4
  %23 = lshr i32 %22, 1
  %24 = and i32 %23, 7
  %25 = icmp eq i32 %24, 1
  br i1 %25, label %26, label %28

26:                                               ; preds = %20
  %27 = load ptr, ptr %11, align 8, !tbaa !34
  call void @clear_commit_marks(ptr noundef %27, i32 noundef 60)
  br label %28

28:                                               ; preds = %26, %20, %5
  call void @llvm.lifetime.end.p0(i64 8, ptr %11) #6
  ret i32 0
}