; Function Attrs: nounwind uwtable
define internal noundef i32 @clear_marks(ptr noundef %0, ptr readnone captures(none) %1, ptr noundef %2, i32 %3, ptr readnone captures(none) %4) #0 {
  %6 = load ptr, ptr @the_repository, align 8, !tbaa !20
  %7 = tail call ptr @parse_object(ptr noundef %6, ptr noundef %2) #5
  %8 = tail call ptr @deref_tag(ptr noundef %6, ptr noundef %7, ptr noundef %0, i32 noundef 0) #5
  %.not = icmp eq ptr %8, null
  br i1 %.not, label %14, label %9

9:                                                ; preds = %5
  %10 = load i32, ptr %8, align 4
  %11 = and i32 %10, 14
  %12 = icmp eq i32 %11, 2
  br i1 %12, label %13, label %14

13:                                               ; preds = %9
  tail call void @clear_commit_marks(ptr noundef nonnull %8, i32 noundef 60) #5
  br label %14

14:                                               ; preds = %13, %9, %5
  ret i32 0
}